
Osciloscope.elf:     file format elf32-avr

Sections:
Idx Name          Size      VMA       LMA       File off  Algn
  0 .data         00000004  00800200  00000a22  00000ab6  2**0
                  CONTENTS, ALLOC, LOAD, DATA
  1 .text         00000a22  00000000  00000000  00000094  2**1
                  CONTENTS, ALLOC, LOAD, READONLY, CODE
  2 .bss          00000405  00800204  00800204  00000aba  2**0
                  ALLOC
  3 .comment      00000030  00000000  00000000  00000aba  2**0
                  CONTENTS, READONLY
  4 .note.gnu.avr.deviceinfo 00000040  00000000  00000000  00000aec  2**2
                  CONTENTS, READONLY
  5 .debug_aranges 000001e8  00000000  00000000  00000b2c  2**0
                  CONTENTS, READONLY, DEBUGGING
  6 .debug_info   000025e8  00000000  00000000  00000d14  2**0
                  CONTENTS, READONLY, DEBUGGING
  7 .debug_abbrev 000011bd  00000000  00000000  000032fc  2**0
                  CONTENTS, READONLY, DEBUGGING
  8 .debug_line   000010d5  00000000  00000000  000044b9  2**0
                  CONTENTS, READONLY, DEBUGGING
  9 .debug_frame  00000548  00000000  00000000  00005590  2**2
                  CONTENTS, READONLY, DEBUGGING
 10 .debug_str    00000912  00000000  00000000  00005ad8  2**0
                  CONTENTS, READONLY, DEBUGGING
 11 .debug_loc    0000143f  00000000  00000000  000063ea  2**0
                  CONTENTS, READONLY, DEBUGGING
 12 .debug_ranges 00000198  00000000  00000000  00007829  2**0
                  CONTENTS, READONLY, DEBUGGING

Disassembly of section .text:

00000000 <__vectors>:
   0:	f1 c1       	rjmp	.+994    	; 0x3e4 <__ctors_end>
   2:	00 00       	nop
   4:	0e c2       	rjmp	.+1052   	; 0x422 <__bad_interrupt>
   6:	00 00       	nop
   8:	0c c2       	rjmp	.+1048   	; 0x422 <__bad_interrupt>
   a:	00 00       	nop
   c:	0a c2       	rjmp	.+1044   	; 0x422 <__bad_interrupt>
   e:	00 00       	nop
  10:	08 c2       	rjmp	.+1040   	; 0x422 <__bad_interrupt>
  12:	00 00       	nop
  14:	06 c2       	rjmp	.+1036   	; 0x422 <__bad_interrupt>
  16:	00 00       	nop
  18:	04 c2       	rjmp	.+1032   	; 0x422 <__bad_interrupt>
  1a:	00 00       	nop
  1c:	02 c2       	rjmp	.+1028   	; 0x422 <__bad_interrupt>
  1e:	00 00       	nop
  20:	00 c2       	rjmp	.+1024   	; 0x422 <__bad_interrupt>
  22:	00 00       	nop
  24:	fe c1       	rjmp	.+1020   	; 0x422 <__bad_interrupt>
  26:	00 00       	nop
  28:	fc c1       	rjmp	.+1016   	; 0x422 <__bad_interrupt>
  2a:	00 00       	nop
  2c:	fa c1       	rjmp	.+1012   	; 0x422 <__bad_interrupt>
  2e:	00 00       	nop
  30:	f8 c1       	rjmp	.+1008   	; 0x422 <__bad_interrupt>
  32:	00 00       	nop
  34:	f6 c1       	rjmp	.+1004   	; 0x422 <__bad_interrupt>
  36:	00 00       	nop
  38:	f4 c1       	rjmp	.+1000   	; 0x422 <__bad_interrupt>
  3a:	00 00       	nop
  3c:	f2 c1       	rjmp	.+996    	; 0x422 <__bad_interrupt>
  3e:	00 00       	nop
  40:	f0 c1       	rjmp	.+992    	; 0x422 <__bad_interrupt>
  42:	00 00       	nop
  44:	fb c2       	rjmp	.+1526   	; 0x63c <__vector_17>
  46:	00 00       	nop
  48:	ec c1       	rjmp	.+984    	; 0x422 <__bad_interrupt>
  4a:	00 00       	nop
  4c:	ea c1       	rjmp	.+980    	; 0x422 <__bad_interrupt>
  4e:	00 00       	nop
  50:	e8 c1       	rjmp	.+976    	; 0x422 <__bad_interrupt>
  52:	00 00       	nop
  54:	e6 c1       	rjmp	.+972    	; 0x422 <__bad_interrupt>
  56:	00 00       	nop
  58:	e4 c1       	rjmp	.+968    	; 0x422 <__bad_interrupt>
  5a:	00 00       	nop
  5c:	e2 c1       	rjmp	.+964    	; 0x422 <__bad_interrupt>
  5e:	00 00       	nop
  60:	e0 c1       	rjmp	.+960    	; 0x422 <__bad_interrupt>
  62:	00 00       	nop
  64:	de c1       	rjmp	.+956    	; 0x422 <__bad_interrupt>
  66:	00 00       	nop
  68:	dc c1       	rjmp	.+952    	; 0x422 <__bad_interrupt>
  6a:	00 00       	nop
  6c:	da c1       	rjmp	.+948    	; 0x422 <__bad_interrupt>
  6e:	00 00       	nop
  70:	d8 c1       	rjmp	.+944    	; 0x422 <__bad_interrupt>
  72:	00 00       	nop
  74:	fc c2       	rjmp	.+1528   	; 0x66e <__vector_29>
  76:	00 00       	nop
  78:	d4 c1       	rjmp	.+936    	; 0x422 <__bad_interrupt>
  7a:	00 00       	nop
  7c:	d2 c1       	rjmp	.+932    	; 0x422 <__bad_interrupt>
  7e:	00 00       	nop
  80:	d0 c1       	rjmp	.+928    	; 0x422 <__bad_interrupt>
  82:	00 00       	nop
  84:	ce c1       	rjmp	.+924    	; 0x422 <__bad_interrupt>
  86:	00 00       	nop
  88:	cc c1       	rjmp	.+920    	; 0x422 <__bad_interrupt>
  8a:	00 00       	nop
  8c:	ca c1       	rjmp	.+916    	; 0x422 <__bad_interrupt>
  8e:	00 00       	nop
  90:	01 c3       	rjmp	.+1538   	; 0x694 <__vector_36>
  92:	00 00       	nop
  94:	c6 c1       	rjmp	.+908    	; 0x422 <__bad_interrupt>
  96:	00 00       	nop
  98:	c4 c1       	rjmp	.+904    	; 0x422 <__bad_interrupt>
  9a:	00 00       	nop
  9c:	c2 c1       	rjmp	.+900    	; 0x422 <__bad_interrupt>
  9e:	00 00       	nop
  a0:	c0 c1       	rjmp	.+896    	; 0x422 <__bad_interrupt>
  a2:	00 00       	nop
  a4:	be c1       	rjmp	.+892    	; 0x422 <__bad_interrupt>
  a6:	00 00       	nop
  a8:	bc c1       	rjmp	.+888    	; 0x422 <__bad_interrupt>
  aa:	00 00       	nop
  ac:	ba c1       	rjmp	.+884    	; 0x422 <__bad_interrupt>
  ae:	00 00       	nop
  b0:	b8 c1       	rjmp	.+880    	; 0x422 <__bad_interrupt>
  b2:	00 00       	nop
  b4:	b6 c1       	rjmp	.+876    	; 0x422 <__bad_interrupt>
  b6:	00 00       	nop
  b8:	b4 c1       	rjmp	.+872    	; 0x422 <__bad_interrupt>
  ba:	00 00       	nop
  bc:	b2 c1       	rjmp	.+868    	; 0x422 <__bad_interrupt>
  be:	00 00       	nop
  c0:	b0 c1       	rjmp	.+864    	; 0x422 <__bad_interrupt>
  c2:	00 00       	nop
  c4:	ae c1       	rjmp	.+860    	; 0x422 <__bad_interrupt>
  c6:	00 00       	nop
  c8:	ac c1       	rjmp	.+856    	; 0x422 <__bad_interrupt>
  ca:	00 00       	nop
  cc:	aa c1       	rjmp	.+852    	; 0x422 <__bad_interrupt>
  ce:	00 00       	nop
  d0:	a8 c1       	rjmp	.+848    	; 0x422 <__bad_interrupt>
  d2:	00 00       	nop
  d4:	a6 c1       	rjmp	.+844    	; 0x422 <__bad_interrupt>
  d6:	00 00       	nop
  d8:	a4 c1       	rjmp	.+840    	; 0x422 <__bad_interrupt>
  da:	00 00       	nop
  dc:	a2 c1       	rjmp	.+836    	; 0x422 <__bad_interrupt>
  de:	00 00       	nop
  e0:	a0 c1       	rjmp	.+832    	; 0x422 <__bad_interrupt>
	...

000000e4 <__trampolines_end>:
	...
  ec:	00 00       	nop
  ee:	5f 00       	.word	0x005f	; ????
  f0:	00 00       	nop
  f2:	00 00       	nop
  f4:	00 00       	nop
  f6:	07 00       	.word	0x0007	; ????
  f8:	07 00       	.word	0x0007	; ????
  fa:	00 00       	nop
  fc:	00 14       	cp	r0, r0
  fe:	7f 14       	cp	r7, r15
 100:	7f 14       	cp	r7, r15
 102:	00 00       	nop
 104:	00 24       	eor	r0, r0
 106:	2a 7f       	andi	r18, 0xFA	; 250
 108:	2a 12       	cpse	r2, r26
 10a:	00 00       	nop
 10c:	00 23       	and	r16, r16
 10e:	13 08       	sbc	r1, r3
 110:	64 62       	ori	r22, 0x24	; 36
 112:	00 00       	nop
 114:	00 36       	cpi	r16, 0x60	; 96
 116:	49 55       	subi	r20, 0x59	; 89
 118:	22 50       	subi	r18, 0x02	; 2
 11a:	00 00       	nop
 11c:	00 00       	nop
 11e:	05 03       	mulsu	r16, r21
 120:	00 00       	nop
 122:	00 00       	nop
 124:	00 1c       	adc	r0, r0
 126:	22 41       	sbci	r18, 0x12	; 18
 128:	00 00       	nop
 12a:	00 00       	nop
 12c:	00 41       	sbci	r16, 0x10	; 16
 12e:	22 1c       	adc	r2, r2
 130:	00 00       	nop
 132:	00 00       	nop
 134:	00 08       	sbc	r0, r0
 136:	2a 1c       	adc	r2, r10
 138:	2a 08       	sbc	r2, r10
 13a:	00 00       	nop
 13c:	00 08       	sbc	r0, r0
 13e:	08 3e       	cpi	r16, 0xE8	; 232
 140:	08 08       	sbc	r0, r8
 142:	00 00       	nop
 144:	00 a0       	ldd	r0, Z+32	; 0x20
 146:	60 00       	.word	0x0060	; ????
 148:	00 00       	nop
 14a:	00 00       	nop
 14c:	00 08       	sbc	r0, r0
 14e:	08 08       	sbc	r0, r8
 150:	08 08       	sbc	r0, r8
 152:	00 00       	nop
 154:	00 60       	ori	r16, 0x00	; 0
 156:	60 00       	.word	0x0060	; ????
 158:	00 00       	nop
 15a:	00 00       	nop
 15c:	00 20       	and	r0, r0
 15e:	10 08       	sbc	r1, r0
 160:	04 02       	muls	r16, r20
 162:	00 00       	nop
 164:	00 3e       	cpi	r16, 0xE0	; 224
 166:	51 49       	sbci	r21, 0x91	; 145
 168:	45 3e       	cpi	r20, 0xE5	; 229
 16a:	00 00       	nop
 16c:	00 00       	nop
 16e:	42 7f       	andi	r20, 0xF2	; 242
 170:	40 00       	.word	0x0040	; ????
 172:	00 00       	nop
 174:	00 62       	ori	r16, 0x20	; 32
 176:	51 49       	sbci	r21, 0x91	; 145
 178:	49 46       	sbci	r20, 0x69	; 105
 17a:	00 00       	nop
 17c:	00 22       	and	r0, r16
 17e:	41 49       	sbci	r20, 0x91	; 145
 180:	49 36       	cpi	r20, 0x69	; 105
 182:	00 00       	nop
 184:	00 18       	sub	r0, r0
 186:	14 12       	cpse	r1, r20
 188:	7f 10       	cpse	r7, r15
 18a:	00 00       	nop
 18c:	00 27       	eor	r16, r16
 18e:	45 45       	sbci	r20, 0x55	; 85
 190:	45 39       	cpi	r20, 0x95	; 149
 192:	00 00       	nop
 194:	00 3c       	cpi	r16, 0xC0	; 192
 196:	4a 49       	sbci	r20, 0x9A	; 154
 198:	49 30       	cpi	r20, 0x09	; 9
 19a:	00 00       	nop
 19c:	00 01       	movw	r0, r0
 19e:	71 09       	sbc	r23, r1
 1a0:	05 03       	mulsu	r16, r21
 1a2:	00 00       	nop
 1a4:	00 36       	cpi	r16, 0x60	; 96
 1a6:	49 49       	sbci	r20, 0x99	; 153
 1a8:	49 36       	cpi	r20, 0x69	; 105
 1aa:	00 00       	nop
 1ac:	00 06       	cpc	r0, r16
 1ae:	49 49       	sbci	r20, 0x99	; 153
 1b0:	29 1e       	adc	r2, r25
 1b2:	00 00       	nop
 1b4:	00 00       	nop
 1b6:	36 36       	cpi	r19, 0x66	; 102
 1b8:	00 00       	nop
 1ba:	00 00       	nop
 1bc:	00 00       	nop
 1be:	ac 6c       	ori	r26, 0xCC	; 204
 1c0:	00 00       	nop
 1c2:	00 00       	nop
 1c4:	00 08       	sbc	r0, r0
 1c6:	14 22       	and	r1, r20
 1c8:	41 00       	.word	0x0041	; ????
 1ca:	00 00       	nop
 1cc:	00 14       	cp	r0, r0
 1ce:	14 14       	cp	r1, r4
 1d0:	14 14       	cp	r1, r4
 1d2:	00 00       	nop
 1d4:	00 41       	sbci	r16, 0x10	; 16
 1d6:	22 14       	cp	r2, r2
 1d8:	08 00       	.word	0x0008	; ????
 1da:	00 00       	nop
 1dc:	00 02       	muls	r16, r16
 1de:	01 51       	subi	r16, 0x11	; 17
 1e0:	09 06       	cpc	r0, r25
 1e2:	00 00       	nop
 1e4:	00 32       	cpi	r16, 0x20	; 32
 1e6:	49 79       	andi	r20, 0x99	; 153
 1e8:	41 3e       	cpi	r20, 0xE1	; 225
 1ea:	00 00       	nop
 1ec:	00 7e       	andi	r16, 0xE0	; 224
 1ee:	09 09       	sbc	r16, r9
 1f0:	09 7e       	andi	r16, 0xE9	; 233
 1f2:	00 00       	nop
 1f4:	00 7f       	andi	r16, 0xF0	; 240
 1f6:	49 49       	sbci	r20, 0x99	; 153
 1f8:	49 36       	cpi	r20, 0x69	; 105
 1fa:	00 00       	nop
 1fc:	00 3e       	cpi	r16, 0xE0	; 224
 1fe:	41 41       	sbci	r20, 0x11	; 17
 200:	41 22       	and	r4, r17
 202:	00 00       	nop
 204:	00 7f       	andi	r16, 0xF0	; 240
 206:	41 41       	sbci	r20, 0x11	; 17
 208:	22 1c       	adc	r2, r2
 20a:	00 00       	nop
 20c:	00 7f       	andi	r16, 0xF0	; 240
 20e:	49 49       	sbci	r20, 0x99	; 153
 210:	49 41       	sbci	r20, 0x19	; 25
 212:	00 00       	nop
 214:	00 7f       	andi	r16, 0xF0	; 240
 216:	09 09       	sbc	r16, r9
 218:	09 01       	movw	r0, r18
 21a:	00 00       	nop
 21c:	00 3e       	cpi	r16, 0xE0	; 224
 21e:	41 41       	sbci	r20, 0x11	; 17
 220:	51 72       	andi	r21, 0x21	; 33
 222:	00 00       	nop
 224:	00 7f       	andi	r16, 0xF0	; 240
 226:	08 08       	sbc	r0, r8
 228:	08 7f       	andi	r16, 0xF8	; 248
 22a:	00 00       	nop
 22c:	00 41       	sbci	r16, 0x10	; 16
 22e:	7f 41       	sbci	r23, 0x1F	; 31
 230:	00 00       	nop
 232:	00 00       	nop
 234:	00 20       	and	r0, r0
 236:	40 41       	sbci	r20, 0x10	; 16
 238:	3f 01       	movw	r6, r30
 23a:	00 00       	nop
 23c:	00 7f       	andi	r16, 0xF0	; 240
 23e:	08 14       	cp	r0, r8
 240:	22 41       	sbci	r18, 0x12	; 18
 242:	00 00       	nop
 244:	00 7f       	andi	r16, 0xF0	; 240
 246:	40 40       	sbci	r20, 0x00	; 0
 248:	40 40       	sbci	r20, 0x00	; 0
 24a:	00 00       	nop
 24c:	00 7f       	andi	r16, 0xF0	; 240
 24e:	02 0c       	add	r0, r2
 250:	02 7f       	andi	r16, 0xF2	; 242
 252:	00 00       	nop
 254:	00 7f       	andi	r16, 0xF0	; 240
 256:	04 08       	sbc	r0, r4
 258:	10 7f       	andi	r17, 0xF0	; 240
 25a:	00 00       	nop
 25c:	00 3e       	cpi	r16, 0xE0	; 224
 25e:	41 41       	sbci	r20, 0x11	; 17
 260:	41 3e       	cpi	r20, 0xE1	; 225
 262:	00 00       	nop
 264:	00 7f       	andi	r16, 0xF0	; 240
 266:	09 09       	sbc	r16, r9
 268:	09 06       	cpc	r0, r25
 26a:	00 00       	nop
 26c:	00 3e       	cpi	r16, 0xE0	; 224
 26e:	41 51       	subi	r20, 0x11	; 17
 270:	21 5e       	subi	r18, 0xE1	; 225
 272:	00 00       	nop
 274:	00 7f       	andi	r16, 0xF0	; 240
 276:	09 19       	sub	r16, r9
 278:	29 46       	sbci	r18, 0x69	; 105
 27a:	00 00       	nop
 27c:	00 26       	eor	r0, r16
 27e:	49 49       	sbci	r20, 0x99	; 153
 280:	49 32       	cpi	r20, 0x29	; 41
 282:	00 00       	nop
 284:	00 01       	movw	r0, r0
 286:	01 7f       	andi	r16, 0xF1	; 241
 288:	01 01       	movw	r0, r2
 28a:	00 00       	nop
 28c:	00 3f       	cpi	r16, 0xF0	; 240
 28e:	40 40       	sbci	r20, 0x00	; 0
 290:	40 3f       	cpi	r20, 0xF0	; 240
 292:	00 00       	nop
 294:	00 1f       	adc	r16, r16
 296:	20 40       	sbci	r18, 0x00	; 0
 298:	20 1f       	adc	r18, r16
 29a:	00 00       	nop
 29c:	00 3f       	cpi	r16, 0xF0	; 240
 29e:	40 38       	cpi	r20, 0x80	; 128
 2a0:	40 3f       	cpi	r20, 0xF0	; 240
 2a2:	00 00       	nop
 2a4:	00 63       	ori	r16, 0x30	; 48
 2a6:	14 08       	sbc	r1, r4
 2a8:	14 63       	ori	r17, 0x34	; 52
 2aa:	00 00       	nop
 2ac:	00 03       	mulsu	r16, r16
 2ae:	04 78       	andi	r16, 0x84	; 132
 2b0:	04 03       	mulsu	r16, r20
 2b2:	00 00       	nop
 2b4:	00 61       	ori	r16, 0x10	; 16
 2b6:	51 49       	sbci	r21, 0x91	; 145
 2b8:	45 43       	sbci	r20, 0x35	; 53
 2ba:	00 00       	nop
 2bc:	00 7f       	andi	r16, 0xF0	; 240
 2be:	41 41       	sbci	r20, 0x11	; 17
 2c0:	00 00       	nop
 2c2:	00 00       	nop
 2c4:	00 02       	muls	r16, r16
 2c6:	04 08       	sbc	r0, r4
 2c8:	10 20       	and	r1, r0
 2ca:	00 00       	nop
 2cc:	00 41       	sbci	r16, 0x10	; 16
 2ce:	41 7f       	andi	r20, 0xF1	; 241
 2d0:	00 00       	nop
 2d2:	00 00       	nop
 2d4:	00 04       	cpc	r0, r0
 2d6:	02 01       	movw	r0, r4
 2d8:	02 04       	cpc	r0, r2
 2da:	00 00       	nop
 2dc:	00 80       	ld	r0, Z
 2de:	80 80       	ld	r8, Z
 2e0:	80 80       	ld	r8, Z
 2e2:	00 00       	nop
 2e4:	00 01       	movw	r0, r0
 2e6:	02 04       	cpc	r0, r2
 2e8:	00 00       	nop
 2ea:	00 00       	nop
 2ec:	00 20       	and	r0, r0
 2ee:	54 54       	subi	r21, 0x44	; 68
 2f0:	54 78       	andi	r21, 0x84	; 132
 2f2:	00 00       	nop
 2f4:	00 7f       	andi	r16, 0xF0	; 240
 2f6:	48 44       	sbci	r20, 0x48	; 72
 2f8:	44 38       	cpi	r20, 0x84	; 132
 2fa:	00 00       	nop
 2fc:	00 38       	cpi	r16, 0x80	; 128
 2fe:	44 44       	sbci	r20, 0x44	; 68
 300:	28 00       	.word	0x0028	; ????
 302:	00 00       	nop
 304:	00 38       	cpi	r16, 0x80	; 128
 306:	44 44       	sbci	r20, 0x44	; 68
 308:	48 7f       	andi	r20, 0xF8	; 248
 30a:	00 00       	nop
 30c:	00 38       	cpi	r16, 0x80	; 128
 30e:	54 54       	subi	r21, 0x44	; 68
 310:	54 18       	sub	r5, r4
 312:	00 00       	nop
 314:	00 08       	sbc	r0, r0
 316:	7e 09       	sbc	r23, r14
 318:	02 00       	.word	0x0002	; ????
 31a:	00 00       	nop
 31c:	00 18       	sub	r0, r0
 31e:	a4 a4       	ldd	r10, Z+44	; 0x2c
 320:	a4 7c       	andi	r26, 0xC4	; 196
 322:	00 00       	nop
 324:	00 7f       	andi	r16, 0xF0	; 240
 326:	08 04       	cpc	r0, r8
 328:	04 78       	andi	r16, 0x84	; 132
 32a:	00 00       	nop
 32c:	00 00       	nop
 32e:	7d 00       	.word	0x007d	; ????
 330:	00 00       	nop
 332:	00 00       	nop
 334:	00 80       	ld	r0, Z
 336:	84 7d       	andi	r24, 0xD4	; 212
 338:	00 00       	nop
 33a:	00 00       	nop
 33c:	00 7f       	andi	r16, 0xF0	; 240
 33e:	10 28       	or	r1, r0
 340:	44 00       	.word	0x0044	; ????
 342:	00 00       	nop
 344:	00 41       	sbci	r16, 0x10	; 16
 346:	7f 40       	sbci	r23, 0x0F	; 15
 348:	00 00       	nop
 34a:	00 00       	nop
 34c:	00 7c       	andi	r16, 0xC0	; 192
 34e:	04 18       	sub	r0, r4
 350:	04 78       	andi	r16, 0x84	; 132
 352:	00 00       	nop
 354:	00 7c       	andi	r16, 0xC0	; 192
 356:	08 04       	cpc	r0, r8
 358:	7c 00       	.word	0x007c	; ????
 35a:	00 00       	nop
 35c:	00 38       	cpi	r16, 0x80	; 128
 35e:	44 44       	sbci	r20, 0x44	; 68
 360:	38 00       	.word	0x0038	; ????
 362:	00 00       	nop
 364:	00 fc       	sbrc	r0, 0
 366:	24 24       	eor	r2, r4
 368:	18 00       	.word	0x0018	; ????
 36a:	00 00       	nop
 36c:	00 18       	sub	r0, r0
 36e:	24 24       	eor	r2, r4
 370:	fc 00       	.word	0x00fc	; ????
 372:	00 00       	nop
 374:	00 00       	nop
 376:	7c 08       	sbc	r7, r12
 378:	04 00       	.word	0x0004	; ????
 37a:	00 00       	nop
 37c:	00 48       	sbci	r16, 0x80	; 128
 37e:	54 54       	subi	r21, 0x44	; 68
 380:	24 00       	.word	0x0024	; ????
 382:	00 00       	nop
 384:	00 04       	cpc	r0, r0
 386:	7f 44       	sbci	r23, 0x4F	; 79
 388:	00 00       	nop
 38a:	00 00       	nop
 38c:	00 3c       	cpi	r16, 0xC0	; 192
 38e:	40 40       	sbci	r20, 0x00	; 0
 390:	7c 00       	.word	0x007c	; ????
 392:	00 00       	nop
 394:	00 1c       	adc	r0, r0
 396:	20 40       	sbci	r18, 0x00	; 0
 398:	20 1c       	adc	r2, r0
 39a:	00 00       	nop
 39c:	00 3c       	cpi	r16, 0xC0	; 192
 39e:	40 30       	cpi	r20, 0x00	; 0
 3a0:	40 3c       	cpi	r20, 0xC0	; 192
 3a2:	00 00       	nop
 3a4:	00 44       	sbci	r16, 0x40	; 64
 3a6:	28 10       	cpse	r2, r8
 3a8:	28 44       	sbci	r18, 0x48	; 72
 3aa:	00 00       	nop
 3ac:	00 1c       	adc	r0, r0
 3ae:	a0 a0       	ldd	r10, Z+32	; 0x20
 3b0:	7c 00       	.word	0x007c	; ????
 3b2:	00 00       	nop
 3b4:	00 44       	sbci	r16, 0x40	; 64
 3b6:	64 54       	subi	r22, 0x44	; 68
 3b8:	4c 44       	sbci	r20, 0x4C	; 76
 3ba:	00 00       	nop
 3bc:	00 08       	sbc	r0, r0
 3be:	36 41       	sbci	r19, 0x16	; 22
 3c0:	00 00       	nop
 3c2:	00 00       	nop
 3c4:	00 00       	nop
 3c6:	7f 00       	.word	0x007f	; ????
 3c8:	00 00       	nop
 3ca:	00 00       	nop
 3cc:	00 41       	sbci	r16, 0x10	; 16
 3ce:	36 08       	sbc	r3, r6
 3d0:	00 00       	nop
 3d2:	00 00       	nop
 3d4:	00 02       	muls	r16, r16
 3d6:	01 01       	movw	r0, r2
 3d8:	02 01       	movw	r0, r4
 3da:	00 00       	nop
 3dc:	00 02       	muls	r16, r16
 3de:	05 05       	cpc	r16, r5
 3e0:	02 00       	.word	0x0002	; ????
	...

000003e4 <__ctors_end>:
 3e4:	11 24       	eor	r1, r1
 3e6:	1f be       	out	0x3f, r1	; 63
 3e8:	cf ef       	ldi	r28, 0xFF	; 255
 3ea:	d1 e2       	ldi	r29, 0x21	; 33
 3ec:	de bf       	out	0x3e, r29	; 62
 3ee:	cd bf       	out	0x3d, r28	; 61
 3f0:	00 e0       	ldi	r16, 0x00	; 0
 3f2:	0c bf       	out	0x3c, r16	; 60

000003f4 <__do_copy_data>:
 3f4:	12 e0       	ldi	r17, 0x02	; 2
 3f6:	a0 e0       	ldi	r26, 0x00	; 0
 3f8:	b2 e0       	ldi	r27, 0x02	; 2
 3fa:	e2 e2       	ldi	r30, 0x22	; 34
 3fc:	fa e0       	ldi	r31, 0x0A	; 10
 3fe:	00 e0       	ldi	r16, 0x00	; 0
 400:	0b bf       	out	0x3b, r16	; 59
 402:	02 c0       	rjmp	.+4      	; 0x408 <__LOCK_REGION_LENGTH__+0x8>
 404:	07 90       	elpm	r0, Z+
 406:	0d 92       	st	X+, r0
 408:	a4 30       	cpi	r26, 0x04	; 4
 40a:	b1 07       	cpc	r27, r17
 40c:	d9 f7       	brne	.-10     	; 0x404 <__LOCK_REGION_LENGTH__+0x4>

0000040e <__do_clear_bss>:
 40e:	26 e0       	ldi	r18, 0x06	; 6
 410:	a4 e0       	ldi	r26, 0x04	; 4
 412:	b2 e0       	ldi	r27, 0x02	; 2
 414:	01 c0       	rjmp	.+2      	; 0x418 <.do_clear_bss_start>

00000416 <.do_clear_bss_loop>:
 416:	1d 92       	st	X+, r1

00000418 <.do_clear_bss_start>:
 418:	a9 30       	cpi	r26, 0x09	; 9
 41a:	b2 07       	cpc	r27, r18
 41c:	e1 f7       	brne	.-8      	; 0x416 <.do_clear_bss_loop>
 41e:	dc d0       	rcall	.+440    	; 0x5d8 <main>
 420:	fe c2       	rjmp	.+1532   	; 0xa1e <_exit>

00000422 <__bad_interrupt>:
 422:	ee cd       	rjmp	.-1060   	; 0x0 <__vectors>

00000424 <init_adc>:
#include <avr/interrupt.h>
#define F_CPU 16000000UL

//Initialize adc
void init_adc(char ADC_channel){
		ADCSRA|=(1<<ADPS2)|(1<<ADEN)|(1<<ADIE); //1 MHz med 16 Prescale, ADC Enable, ADC Intertupt Enable
 424:	ea e7       	ldi	r30, 0x7A	; 122
 426:	f0 e0       	ldi	r31, 0x00	; 0
 428:	90 81       	ld	r25, Z
 42a:	9c 68       	ori	r25, 0x8C	; 140
 42c:	90 83       	st	Z, r25
		
		
		//ADCSRB|=(1<<ADTS0)|(1<<ADTS2); //Auto-trigger = Timer1_Compare_Match_B
		
		
		ADMUX = ADC_channel;
 42e:	ec e7       	ldi	r30, 0x7C	; 124
 430:	f0 e0       	ldi	r31, 0x00	; 0
 432:	80 83       	st	Z, r24
		ADMUX |= (1<<REFS0)|(1<<ADLAR); //ADC Spændings Refference = AVCC, Left shift resultat
 434:	90 81       	ld	r25, Z
 436:	90 66       	ori	r25, 0x60	; 96
 438:	90 83       	st	Z, r25
		DIDR0 = (1<<ADC_channel);
 43a:	21 e0       	ldi	r18, 0x01	; 1
 43c:	30 e0       	ldi	r19, 0x00	; 0
 43e:	a9 01       	movw	r20, r18
 440:	02 c0       	rjmp	.+4      	; 0x446 <init_adc+0x22>
 442:	44 0f       	add	r20, r20
 444:	55 1f       	adc	r21, r21
 446:	8a 95       	dec	r24
 448:	e2 f7       	brpl	.-8      	; 0x442 <init_adc+0x1e>
 44a:	ee e7       	ldi	r30, 0x7E	; 126
 44c:	f0 e0       	ldi	r31, 0x00	; 0
 44e:	40 83       	st	Z, r20
		DIDR0 =~DIDR0;
 450:	80 81       	ld	r24, Z
 452:	80 95       	com	r24
 454:	80 83       	st	Z, r24
		DIDR2 =0xff;
 456:	8f ef       	ldi	r24, 0xFF	; 255
 458:	80 93 7d 00 	sts	0x007D, r24	; 0x80007d <__TEXT_REGION_LENGTH__+0x70007d>
 45c:	08 95       	ret

0000045e <I2C_Init>:
char I2C_Read_Nack()		/* I2C read nack function */
{
	TWCR=(1<<TWEN)|(1<<TWINT);	/* Enable TWI and clear interrupt flag */
	while(!(TWCR&(1<<TWINT)));	/* Wait until TWI finish its current job */
	return TWDR;		/* Return received data */
}
 45e:	08 9a       	sbi	0x01, 0	; 1
 460:	10 9a       	sbi	0x02, 0	; 2
 462:	2f ef       	ldi	r18, 0xFF	; 255
 464:	83 ed       	ldi	r24, 0xD3	; 211
 466:	90 e3       	ldi	r25, 0x30	; 48
 468:	21 50       	subi	r18, 0x01	; 1
 46a:	80 40       	sbci	r24, 0x00	; 0
 46c:	90 40       	sbci	r25, 0x00	; 0
 46e:	e1 f7       	brne	.-8      	; 0x468 <I2C_Init+0xa>
 470:	00 c0       	rjmp	.+0      	; 0x472 <I2C_Init+0x14>
 472:	00 00       	nop
 474:	82 e1       	ldi	r24, 0x12	; 18
 476:	80 93 b8 00 	sts	0x00B8, r24	; 0x8000b8 <__TEXT_REGION_LENGTH__+0x7000b8>
 47a:	e9 eb       	ldi	r30, 0xB9	; 185
 47c:	f0 e0       	ldi	r31, 0x00	; 0
 47e:	80 81       	ld	r24, Z
 480:	8c 7f       	andi	r24, 0xFC	; 252
 482:	80 83       	st	Z, r24
 484:	85 e0       	ldi	r24, 0x05	; 5
 486:	80 93 bc 00 	sts	0x00BC, r24	; 0x8000bc <__TEXT_REGION_LENGTH__+0x7000bc>
 48a:	08 95       	ret

0000048c <I2C_Start>:
 48c:	94 ea       	ldi	r25, 0xA4	; 164
 48e:	90 93 bc 00 	sts	0x00BC, r25	; 0x8000bc <__TEXT_REGION_LENGTH__+0x7000bc>
 492:	ec eb       	ldi	r30, 0xBC	; 188
 494:	f0 e0       	ldi	r31, 0x00	; 0
 496:	90 81       	ld	r25, Z
 498:	99 23       	and	r25, r25
 49a:	ec f7       	brge	.-6      	; 0x496 <I2C_Start+0xa>
 49c:	90 91 b9 00 	lds	r25, 0x00B9	; 0x8000b9 <__TEXT_REGION_LENGTH__+0x7000b9>
 4a0:	98 7f       	andi	r25, 0xF8	; 248
 4a2:	98 30       	cpi	r25, 0x08	; 8
 4a4:	99 f4       	brne	.+38     	; 0x4cc <I2C_Start+0x40>
 4a6:	80 93 bb 00 	sts	0x00BB, r24	; 0x8000bb <__TEXT_REGION_LENGTH__+0x7000bb>
 4aa:	84 e8       	ldi	r24, 0x84	; 132
 4ac:	80 93 bc 00 	sts	0x00BC, r24	; 0x8000bc <__TEXT_REGION_LENGTH__+0x7000bc>
 4b0:	ec eb       	ldi	r30, 0xBC	; 188
 4b2:	f0 e0       	ldi	r31, 0x00	; 0
 4b4:	80 81       	ld	r24, Z
 4b6:	88 23       	and	r24, r24
 4b8:	ec f7       	brge	.-6      	; 0x4b4 <I2C_Start+0x28>
 4ba:	80 91 b9 00 	lds	r24, 0x00B9	; 0x8000b9 <__TEXT_REGION_LENGTH__+0x7000b9>
 4be:	88 7f       	andi	r24, 0xF8	; 248
 4c0:	88 31       	cpi	r24, 0x18	; 24
 4c2:	31 f0       	breq	.+12     	; 0x4d0 <I2C_Start+0x44>
 4c4:	80 32       	cpi	r24, 0x20	; 32
 4c6:	31 f0       	breq	.+12     	; 0x4d4 <I2C_Start+0x48>
 4c8:	83 e0       	ldi	r24, 0x03	; 3
 4ca:	08 95       	ret
 4cc:	80 e0       	ldi	r24, 0x00	; 0
 4ce:	08 95       	ret
 4d0:	81 e0       	ldi	r24, 0x01	; 1
 4d2:	08 95       	ret
 4d4:	82 e0       	ldi	r24, 0x02	; 2
 4d6:	08 95       	ret

000004d8 <I2C_Write>:
 4d8:	80 93 bb 00 	sts	0x00BB, r24	; 0x8000bb <__TEXT_REGION_LENGTH__+0x7000bb>
 4dc:	84 e8       	ldi	r24, 0x84	; 132
 4de:	80 93 bc 00 	sts	0x00BC, r24	; 0x8000bc <__TEXT_REGION_LENGTH__+0x7000bc>
 4e2:	ec eb       	ldi	r30, 0xBC	; 188
 4e4:	f0 e0       	ldi	r31, 0x00	; 0
 4e6:	80 81       	ld	r24, Z
 4e8:	88 23       	and	r24, r24
 4ea:	ec f7       	brge	.-6      	; 0x4e6 <I2C_Write+0xe>
 4ec:	80 91 b9 00 	lds	r24, 0x00B9	; 0x8000b9 <__TEXT_REGION_LENGTH__+0x7000b9>
 4f0:	88 7f       	andi	r24, 0xF8	; 248
 4f2:	88 32       	cpi	r24, 0x28	; 40
 4f4:	21 f0       	breq	.+8      	; 0x4fe <I2C_Write+0x26>
 4f6:	80 33       	cpi	r24, 0x30	; 48
 4f8:	21 f0       	breq	.+8      	; 0x502 <I2C_Write+0x2a>
 4fa:	82 e0       	ldi	r24, 0x02	; 2
 4fc:	08 95       	ret
 4fe:	80 e0       	ldi	r24, 0x00	; 0
 500:	08 95       	ret
 502:	81 e0       	ldi	r24, 0x01	; 1
 504:	08 95       	ret

00000506 <I2C_Stop>:

void I2C_Stop()			/* I2C stop function */
{
	TWCR=(1<<TWSTO)|(1<<TWINT)|(1<<TWEN);/* Enable TWI, generate stop */
 506:	84 e9       	ldi	r24, 0x94	; 148
 508:	80 93 bc 00 	sts	0x00BC, r24	; 0x8000bc <__TEXT_REGION_LENGTH__+0x7000bc>
	while(TWCR&(1<<TWSTO));	/* Wait until stop condition execution */
 50c:	ec eb       	ldi	r30, 0xBC	; 188
 50e:	f0 e0       	ldi	r31, 0x00	; 0
 510:	80 81       	ld	r24, Z
 512:	84 fd       	sbrc	r24, 4
 514:	fd cf       	rjmp	.-6      	; 0x510 <I2C_Stop+0xa>
 516:	08 95       	ret

00000518 <init_timer1>:
	0b01110000, 0b01110000,
0b00000000, 0b00110000 };
/** example setting some text on the display*/

void init_timer1(unsigned int sps){
	TCCR1A = 0;
 518:	10 92 80 00 	sts	0x0080, r1	; 0x800080 <__TEXT_REGION_LENGTH__+0x700080>
	TCCR1B = 0;
 51c:	e1 e8       	ldi	r30, 0x81	; 129
 51e:	f0 e0       	ldi	r31, 0x00	; 0
 520:	10 82       	st	Z, r1
	TCNT1 = 0;
 522:	10 92 85 00 	sts	0x0085, r1	; 0x800085 <__TEXT_REGION_LENGTH__+0x700085>
 526:	10 92 84 00 	sts	0x0084, r1	; 0x800084 <__TEXT_REGION_LENGTH__+0x700084>
	TCCR1B |=(1<<WGM12); //CTC mode
 52a:	20 81       	ld	r18, Z
 52c:	28 60       	ori	r18, 0x08	; 8
 52e:	20 83       	st	Z, r18
	if ((sps<31)){
 530:	8f 31       	cpi	r24, 0x1F	; 31
 532:	91 05       	cpc	r25, r1
 534:	d8 f4       	brcc	.+54     	; 0x56c <init_timer1+0x54>
		TCCR1B |=(1<<CS11)|(1<<CS10);
 536:	20 81       	ld	r18, Z
 538:	23 60       	ori	r18, 0x03	; 3
 53a:	20 83       	st	Z, r18
		OCR1A = (F_CPU/(sps*64))-64;
 53c:	9c 01       	movw	r18, r24
 53e:	00 24       	eor	r0, r0
 540:	36 95       	lsr	r19
 542:	27 95       	ror	r18
 544:	07 94       	ror	r0
 546:	36 95       	lsr	r19
 548:	27 95       	ror	r18
 54a:	07 94       	ror	r0
 54c:	32 2f       	mov	r19, r18
 54e:	20 2d       	mov	r18, r0
 550:	40 e0       	ldi	r20, 0x00	; 0
 552:	50 e0       	ldi	r21, 0x00	; 0
 554:	60 e0       	ldi	r22, 0x00	; 0
 556:	74 e2       	ldi	r23, 0x24	; 36
 558:	84 ef       	ldi	r24, 0xF4	; 244
 55a:	90 e0       	ldi	r25, 0x00	; 0
 55c:	0b d2       	rcall	.+1046   	; 0x974 <__udivmodsi4>
 55e:	20 54       	subi	r18, 0x40	; 64
 560:	31 09       	sbc	r19, r1
 562:	30 93 89 00 	sts	0x0089, r19	; 0x800089 <__TEXT_REGION_LENGTH__+0x700089>
 566:	20 93 88 00 	sts	0x0088, r18	; 0x800088 <__TEXT_REGION_LENGTH__+0x700088>
 56a:	30 c0       	rjmp	.+96     	; 0x5cc <init_timer1+0xb4>
	}
	else if ((sps<245)){
 56c:	85 3f       	cpi	r24, 0xF5	; 245
 56e:	91 05       	cpc	r25, r1
 570:	d0 f4       	brcc	.+52     	; 0x5a6 <init_timer1+0x8e>
		TCCR1B |=(1<<CS11);
 572:	e1 e8       	ldi	r30, 0x81	; 129
 574:	f0 e0       	ldi	r31, 0x00	; 0
 576:	20 81       	ld	r18, Z
 578:	22 60       	ori	r18, 0x02	; 2
 57a:	20 83       	st	Z, r18
		OCR1A = (F_CPU/(sps*8))-8;
 57c:	9c 01       	movw	r18, r24
 57e:	22 0f       	add	r18, r18
 580:	33 1f       	adc	r19, r19
 582:	22 0f       	add	r18, r18
 584:	33 1f       	adc	r19, r19
 586:	22 0f       	add	r18, r18
 588:	33 1f       	adc	r19, r19
 58a:	40 e0       	ldi	r20, 0x00	; 0
 58c:	50 e0       	ldi	r21, 0x00	; 0
 58e:	60 e0       	ldi	r22, 0x00	; 0
 590:	74 e2       	ldi	r23, 0x24	; 36
 592:	84 ef       	ldi	r24, 0xF4	; 244
 594:	90 e0       	ldi	r25, 0x00	; 0
 596:	ee d1       	rcall	.+988    	; 0x974 <__udivmodsi4>
 598:	28 50       	subi	r18, 0x08	; 8
 59a:	31 09       	sbc	r19, r1
 59c:	30 93 89 00 	sts	0x0089, r19	; 0x800089 <__TEXT_REGION_LENGTH__+0x700089>
 5a0:	20 93 88 00 	sts	0x0088, r18	; 0x800088 <__TEXT_REGION_LENGTH__+0x700088>
 5a4:	13 c0       	rjmp	.+38     	; 0x5cc <init_timer1+0xb4>
	}
	else{
		TCCR1B |=(1<<CS10);
 5a6:	e1 e8       	ldi	r30, 0x81	; 129
 5a8:	f0 e0       	ldi	r31, 0x00	; 0
 5aa:	20 81       	ld	r18, Z
 5ac:	21 60       	ori	r18, 0x01	; 1
 5ae:	20 83       	st	Z, r18
		OCR1A = (F_CPU/(sps))-1;
 5b0:	9c 01       	movw	r18, r24
 5b2:	40 e0       	ldi	r20, 0x00	; 0
 5b4:	50 e0       	ldi	r21, 0x00	; 0
 5b6:	60 e0       	ldi	r22, 0x00	; 0
 5b8:	74 e2       	ldi	r23, 0x24	; 36
 5ba:	84 ef       	ldi	r24, 0xF4	; 244
 5bc:	90 e0       	ldi	r25, 0x00	; 0
 5be:	da d1       	rcall	.+948    	; 0x974 <__udivmodsi4>
 5c0:	21 50       	subi	r18, 0x01	; 1
 5c2:	31 09       	sbc	r19, r1
 5c4:	30 93 89 00 	sts	0x0089, r19	; 0x800089 <__TEXT_REGION_LENGTH__+0x700089>
 5c8:	20 93 88 00 	sts	0x0088, r18	; 0x800088 <__TEXT_REGION_LENGTH__+0x700088>
	}
	TIMSK1 |=(1<<OCIE1A); //interrupt when TCNNT1=OCR1A value
 5cc:	ef e6       	ldi	r30, 0x6F	; 111
 5ce:	f0 e0       	ldi	r31, 0x00	; 0
 5d0:	80 81       	ld	r24, Z
 5d2:	82 60       	ori	r24, 0x02	; 2
 5d4:	80 83       	st	Z, r24
 5d6:	08 95       	ret

000005d8 <main>:
}

int main(void)
{
 5d8:	cf 93       	push	r28
 5da:	df 93       	push	r29
 5dc:	00 d0       	rcall	.+0      	; 0x5de <main+0x6>
 5de:	1f 92       	push	r1
 5e0:	1f 92       	push	r1
 5e2:	cd b7       	in	r28, 0x3d	; 61
 5e4:	de b7       	in	r29, 0x3e	; 62
	init_adc(0x00);
 5e6:	80 e0       	ldi	r24, 0x00	; 0
 5e8:	1d df       	rcall	.-454    	; 0x424 <init_adc>
	uart_Init(16);
 5ea:	80 e1       	ldi	r24, 0x10	; 16
 5ec:	90 e0       	ldi	r25, 0x00	; 0
 5ee:	96 d1       	rcall	.+812    	; 0x91c <uart_Init>
	uart0_Init(16);
 5f0:	80 e1       	ldi	r24, 0x10	; 16
 5f2:	90 e0       	ldi	r25, 0x00	; 0
	I2C_Init();
 5f4:	a5 d1       	rcall	.+842    	; 0x940 <uart0_Init>
 5f6:	33 df       	rcall	.-410    	; 0x45e <I2C_Init>
	InitializeDisplay();
 5f8:	bf d0       	rcall	.+382    	; 0x778 <InitializeDisplay>
	reset_display();
 5fa:	28 d1       	rcall	.+592    	; 0x84c <reset_display>
 5fc:	78 94       	sei
	sei();
 5fe:	88 ee       	ldi	r24, 0xE8	; 232
	init_timer1(1000);
 600:	93 e0       	ldi	r25, 0x03	; 3
 602:	8a df       	rcall	.-236    	; 0x518 <init_timer1>
 604:	11 e0       	ldi	r17, 0x01	; 1
 606:	10 93 06 06 	sts	0x0606, r17	; 0x800606 <flagADC>
	char str[5];
		
    while (1) 
    {
		if ((flagADC=1)){
 60a:	10 92 06 06 	sts	0x0606, r1	; 0x800606 <flagADC>
			flagADC = 0;
 60e:	80 91 08 06 	lds	r24, 0x0608	; 0x800608 <Sample>
			
 			itoa(Sample,str,10);
 612:	4a e0       	ldi	r20, 0x0A	; 10
    } else if (__radix < 2 || __radix > 36) {
	*__s = 0;
	return __s;
    } else {
	extern char *__itoa_ncheck (int, char *, unsigned char);
	return __itoa_ncheck (__val, __s, __radix);
 614:	be 01       	movw	r22, r28
 616:	6f 5f       	subi	r22, 0xFF	; 255
 618:	7f 4f       	sbci	r23, 0xFF	; 255
 61a:	90 e0       	ldi	r25, 0x00	; 0
 61c:	cd d1       	rcall	.+922    	; 0x9b8 <__itoa_ncheck>
 61e:	41 e0       	ldi	r20, 0x01	; 1
 			sendStrXY(str,1,1);
 620:	50 e0       	ldi	r21, 0x00	; 0
 622:	61 e0       	ldi	r22, 0x01	; 1
 624:	70 e0       	ldi	r23, 0x00	; 0
 626:	ce 01       	movw	r24, r28
 628:	01 96       	adiw	r24, 0x01	; 1
 62a:	3f d1       	rcall	.+638    	; 0x8aa <sendStrXY>
 62c:	81 e0       	ldi	r24, 0x01	; 1
 			sendStr("  ");
 62e:	92 e0       	ldi	r25, 0x02	; 2
 630:	11 d1       	rcall	.+546    	; 0x854 <sendStr>
 632:	10 93 07 06 	sts	0x0607, r17	; 0x800607 <flagUART>
			//putchUSART1(Sample);
		}
		if  ((flagUART=1)){
 636:	10 92 07 06 	sts	0x0607, r1	; 0x800607 <flagUART>
			flagUART = 0;
 63a:	e5 cf       	rjmp	.-54     	; 0x606 <main+0x2e>

0000063c <__vector_17>:
 63c:	1f 92       	push	r1
 63e:	0f 92       	push	r0
		}
	}
}

ISR(TIMER1_COMPA_vect){
 640:	0f b6       	in	r0, 0x3f	; 63
 642:	0f 92       	push	r0
 644:	11 24       	eor	r1, r1
 646:	0b b6       	in	r0, 0x3b	; 59
 648:	0f 92       	push	r0
 64a:	8f 93       	push	r24
 64c:	ef 93       	push	r30
 64e:	ff 93       	push	r31
	ADCSRA |= (1<<ADSC);
 650:	ea e7       	ldi	r30, 0x7A	; 122
 652:	f0 e0       	ldi	r31, 0x00	; 0
 654:	80 81       	ld	r24, Z
 656:	80 64       	ori	r24, 0x40	; 64
 658:	80 83       	st	Z, r24
}
 65a:	ff 91       	pop	r31
 65c:	ef 91       	pop	r30
 65e:	8f 91       	pop	r24
 660:	0f 90       	pop	r0
 662:	0b be       	out	0x3b, r0	; 59
 664:	0f 90       	pop	r0
 666:	0f be       	out	0x3f, r0	; 63
 668:	0f 90       	pop	r0
 66a:	1f 90       	pop	r1
 66c:	18 95       	reti

0000066e <__vector_29>:

ISR(ADC_vect){
 66e:	1f 92       	push	r1
 670:	0f 92       	push	r0
 672:	0f b6       	in	r0, 0x3f	; 63
 674:	0f 92       	push	r0
 676:	11 24       	eor	r1, r1
 678:	8f 93       	push	r24
	Sample = ADCH;
 67a:	80 91 79 00 	lds	r24, 0x0079	; 0x800079 <__TEXT_REGION_LENGTH__+0x700079>
 67e:	80 93 08 06 	sts	0x0608, r24	; 0x800608 <Sample>
	flagADC = 1;
 682:	81 e0       	ldi	r24, 0x01	; 1
 684:	80 93 06 06 	sts	0x0606, r24	; 0x800606 <flagADC>

}
 688:	8f 91       	pop	r24
 68a:	0f 90       	pop	r0
 68c:	0f be       	out	0x3f, r0	; 63
 68e:	0f 90       	pop	r0
 690:	1f 90       	pop	r1
 692:	18 95       	reti

00000694 <__vector_36>:
ISR(USART1_RX_vect){
 694:	1f 92       	push	r1
 696:	0f 92       	push	r0
 698:	0f b6       	in	r0, 0x3f	; 63
 69a:	0f 92       	push	r0
 69c:	11 24       	eor	r1, r1
 69e:	0b b6       	in	r0, 0x3b	; 59
 6a0:	0f 92       	push	r0
 6a2:	2f 93       	push	r18
 6a4:	3f 93       	push	r19
 6a6:	4f 93       	push	r20
 6a8:	5f 93       	push	r21
 6aa:	6f 93       	push	r22
 6ac:	7f 93       	push	r23
 6ae:	8f 93       	push	r24
 6b0:	9f 93       	push	r25
 6b2:	af 93       	push	r26
 6b4:	bf 93       	push	r27
 6b6:	ef 93       	push	r30
 6b8:	ff 93       	push	r31
	
	putchUSART0(UDR1);
 6ba:	80 91 ce 00 	lds	r24, 0x00CE	; 0x8000ce <__TEXT_REGION_LENGTH__+0x7000ce>
 6be:	52 d1       	rcall	.+676    	; 0x964 <putchUSART0>
	static int i=0;
	static char buffer[4];
	
	switch(i) {
 6c0:	80 91 04 02 	lds	r24, 0x0204	; 0x800204 <__data_end>
 6c4:	90 91 05 02 	lds	r25, 0x0205	; 0x800205 <__data_end+0x1>
 6c8:	81 30       	cpi	r24, 0x01	; 1
 6ca:	91 05       	cpc	r25, r1
 6cc:	a9 f0       	breq	.+42     	; 0x6f8 <__vector_36+0x64>
 6ce:	1c f4       	brge	.+6      	; 0x6d6 <__vector_36+0x42>
 6d0:	89 2b       	or	r24, r25
 6d2:	39 f0       	breq	.+14     	; 0x6e2 <__vector_36+0x4e>
 6d4:	32 c0       	rjmp	.+100    	; 0x73a <__vector_36+0xa6>
 6d6:	82 30       	cpi	r24, 0x02	; 2
 6d8:	91 05       	cpc	r25, r1
 6da:	f1 f0       	breq	.+60     	; 0x718 <__vector_36+0x84>
 6dc:	03 97       	sbiw	r24, 0x03	; 3
 6de:	29 f1       	breq	.+74     	; 0x72a <__vector_36+0x96>
 6e0:	2c c0       	rjmp	.+88     	; 0x73a <__vector_36+0xa6>
		
		case 0:
		buffer[i]=UDR1;
 6e2:	80 91 ce 00 	lds	r24, 0x00CE	; 0x8000ce <__TEXT_REGION_LENGTH__+0x7000ce>
		if (buffer[i]==0x55){
 6e6:	85 35       	cpi	r24, 0x55	; 85
 6e8:	41 f5       	brne	.+80     	; 0x73a <__vector_36+0xa6>
			i++;
 6ea:	81 e0       	ldi	r24, 0x01	; 1
 6ec:	90 e0       	ldi	r25, 0x00	; 0
 6ee:	90 93 05 02 	sts	0x0205, r25	; 0x800205 <__data_end+0x1>
 6f2:	80 93 04 02 	sts	0x0204, r24	; 0x800204 <__data_end>
 6f6:	21 c0       	rjmp	.+66     	; 0x73a <__vector_36+0xa6>
		}
		break;
		
		case 1:
		buffer[i]=UDR1;
 6f8:	80 91 ce 00 	lds	r24, 0x00CE	; 0x8000ce <__TEXT_REGION_LENGTH__+0x7000ce>
		if (buffer[i]==0xAA){
 6fc:	8a 3a       	cpi	r24, 0xAA	; 170
 6fe:	39 f4       	brne	.+14     	; 0x70e <__vector_36+0x7a>
			i++;
 700:	82 e0       	ldi	r24, 0x02	; 2
 702:	90 e0       	ldi	r25, 0x00	; 0
 704:	90 93 05 02 	sts	0x0205, r25	; 0x800205 <__data_end+0x1>
 708:	80 93 04 02 	sts	0x0204, r24	; 0x800204 <__data_end>
 70c:	16 c0       	rjmp	.+44     	; 0x73a <__vector_36+0xa6>
		}
		else{
			i = 0;
 70e:	10 92 05 02 	sts	0x0205, r1	; 0x800205 <__data_end+0x1>
 712:	10 92 04 02 	sts	0x0204, r1	; 0x800204 <__data_end>
 716:	11 c0       	rjmp	.+34     	; 0x73a <__vector_36+0xa6>
		}
		break;
		
		case 2:
		buffer[i]=UDR1;
 718:	80 91 ce 00 	lds	r24, 0x00CE	; 0x8000ce <__TEXT_REGION_LENGTH__+0x7000ce>
		char len1 = buffer[i];
		i++;
 71c:	83 e0       	ldi	r24, 0x03	; 3
 71e:	90 e0       	ldi	r25, 0x00	; 0
 720:	90 93 05 02 	sts	0x0205, r25	; 0x800205 <__data_end+0x1>
 724:	80 93 04 02 	sts	0x0204, r24	; 0x800204 <__data_end>
		break;
 728:	08 c0       	rjmp	.+16     	; 0x73a <__vector_36+0xa6>
		
		case 3:
		buffer[i]=UDR1;
 72a:	80 91 ce 00 	lds	r24, 0x00CE	; 0x8000ce <__TEXT_REGION_LENGTH__+0x7000ce>
		char len2 = buffer[i];
		i++;
 72e:	84 e0       	ldi	r24, 0x04	; 4
 730:	90 e0       	ldi	r25, 0x00	; 0
 732:	90 93 05 02 	sts	0x0205, r25	; 0x800205 <__data_end+0x1>
 736:	80 93 04 02 	sts	0x0204, r24	; 0x800204 <__data_end>
// 		itoa(length,str2,10);
// 		sendStrXY(str2,2,1);
// 		sendStr("  ");
		break;
	}
 73a:	ff 91       	pop	r31
 73c:	ef 91       	pop	r30
 73e:	bf 91       	pop	r27
 740:	af 91       	pop	r26
 742:	9f 91       	pop	r25
 744:	8f 91       	pop	r24
 746:	7f 91       	pop	r23
 748:	6f 91       	pop	r22
 74a:	5f 91       	pop	r21
 74c:	4f 91       	pop	r20
 74e:	3f 91       	pop	r19
 750:	2f 91       	pop	r18
 752:	0f 90       	pop	r0
 754:	0b be       	out	0x3b, r0	; 59
 756:	0f 90       	pop	r0
 758:	0f be       	out	0x3f, r0	; 63
 75a:	0f 90       	pop	r0
 75c:	1f 90       	pop	r1
 75e:	18 95       	reti

00000760 <ssd1306_command>:

	for(int i=0;i<8;i++)
	I2C_Write(pgm_read_byte(myFont[data-0x20]+i));

	I2C_Stop();    // stop transmitting
}
 760:	cf 93       	push	r28
 762:	c8 2f       	mov	r28, r24
 764:	80 91 00 02 	lds	r24, 0x0200	; 0x800200 <__data_start>
 768:	91 de       	rcall	.-734    	; 0x48c <I2C_Start>
 76a:	80 e0       	ldi	r24, 0x00	; 0
 76c:	b5 de       	rcall	.-662    	; 0x4d8 <I2C_Write>
 76e:	8c 2f       	mov	r24, r28
 770:	b3 de       	rcall	.-666    	; 0x4d8 <I2C_Write>
 772:	c9 de       	rcall	.-622    	; 0x506 <I2C_Stop>
 774:	cf 91       	pop	r28
 776:	08 95       	ret

00000778 <InitializeDisplay>:
 778:	8e ea       	ldi	r24, 0xAE	; 174
 77a:	f2 df       	rcall	.-28     	; 0x760 <ssd1306_command>
 77c:	85 ed       	ldi	r24, 0xD5	; 213
 77e:	f0 df       	rcall	.-32     	; 0x760 <ssd1306_command>
 780:	80 e8       	ldi	r24, 0x80	; 128
 782:	ee df       	rcall	.-36     	; 0x760 <ssd1306_command>
 784:	88 ea       	ldi	r24, 0xA8	; 168
 786:	ec df       	rcall	.-40     	; 0x760 <ssd1306_command>
 788:	8f e3       	ldi	r24, 0x3F	; 63
 78a:	ea df       	rcall	.-44     	; 0x760 <ssd1306_command>
 78c:	83 ed       	ldi	r24, 0xD3	; 211
 78e:	e8 df       	rcall	.-48     	; 0x760 <ssd1306_command>
 790:	80 e0       	ldi	r24, 0x00	; 0
 792:	e6 df       	rcall	.-52     	; 0x760 <ssd1306_command>
 794:	80 e4       	ldi	r24, 0x40	; 64
 796:	e4 df       	rcall	.-56     	; 0x760 <ssd1306_command>
 798:	8d e8       	ldi	r24, 0x8D	; 141
 79a:	e2 df       	rcall	.-60     	; 0x760 <ssd1306_command>
 79c:	84 e1       	ldi	r24, 0x14	; 20
 79e:	e0 df       	rcall	.-64     	; 0x760 <ssd1306_command>
 7a0:	80 e2       	ldi	r24, 0x20	; 32
 7a2:	de df       	rcall	.-68     	; 0x760 <ssd1306_command>
 7a4:	80 e0       	ldi	r24, 0x00	; 0
 7a6:	dc df       	rcall	.-72     	; 0x760 <ssd1306_command>
 7a8:	81 ea       	ldi	r24, 0xA1	; 161
 7aa:	da df       	rcall	.-76     	; 0x760 <ssd1306_command>
 7ac:	88 ec       	ldi	r24, 0xC8	; 200
 7ae:	d8 df       	rcall	.-80     	; 0x760 <ssd1306_command>
 7b0:	8a ed       	ldi	r24, 0xDA	; 218
 7b2:	d6 df       	rcall	.-84     	; 0x760 <ssd1306_command>
 7b4:	82 e1       	ldi	r24, 0x12	; 18
 7b6:	d4 df       	rcall	.-88     	; 0x760 <ssd1306_command>
 7b8:	81 e8       	ldi	r24, 0x81	; 129
 7ba:	d2 df       	rcall	.-92     	; 0x760 <ssd1306_command>
 7bc:	8f ec       	ldi	r24, 0xCF	; 207
 7be:	d0 df       	rcall	.-96     	; 0x760 <ssd1306_command>
 7c0:	89 ed       	ldi	r24, 0xD9	; 217
 7c2:	ce df       	rcall	.-100    	; 0x760 <ssd1306_command>
 7c4:	81 ef       	ldi	r24, 0xF1	; 241
 7c6:	cc df       	rcall	.-104    	; 0x760 <ssd1306_command>
 7c8:	8b ed       	ldi	r24, 0xDB	; 219
 7ca:	ca df       	rcall	.-108    	; 0x760 <ssd1306_command>
 7cc:	80 e4       	ldi	r24, 0x40	; 64
 7ce:	c8 df       	rcall	.-112    	; 0x760 <ssd1306_command>
 7d0:	84 ea       	ldi	r24, 0xA4	; 164
 7d2:	c6 df       	rcall	.-116    	; 0x760 <ssd1306_command>
 7d4:	86 ea       	ldi	r24, 0xA6	; 166
 7d6:	c4 df       	rcall	.-120    	; 0x760 <ssd1306_command>
 7d8:	8f ea       	ldi	r24, 0xAF	; 175
 7da:	c2 cf       	rjmp	.-124    	; 0x760 <ssd1306_command>
 7dc:	08 95       	ret

000007de <displayOn>:
 7de:	8f ea       	ldi	r24, 0xAF	; 175
 7e0:	bf cf       	rjmp	.-130    	; 0x760 <ssd1306_command>
 7e2:	08 95       	ret

000007e4 <displayOff>:
 7e4:	8e ea       	ldi	r24, 0xAE	; 174
 7e6:	bc cf       	rjmp	.-136    	; 0x760 <ssd1306_command>
 7e8:	08 95       	ret

000007ea <SendChar>:
 7ea:	cf 93       	push	r28
 7ec:	c8 2f       	mov	r28, r24
 7ee:	80 91 00 02 	lds	r24, 0x0200	; 0x800200 <__data_start>
 7f2:	4c de       	rcall	.-872    	; 0x48c <I2C_Start>
 7f4:	80 e4       	ldi	r24, 0x40	; 64
 7f6:	70 de       	rcall	.-800    	; 0x4d8 <I2C_Write>
 7f8:	8c 2f       	mov	r24, r28
 7fa:	6e de       	rcall	.-804    	; 0x4d8 <I2C_Write>
 7fc:	84 de       	rcall	.-760    	; 0x506 <I2C_Stop>
 7fe:	cf 91       	pop	r28
 800:	08 95       	ret

00000802 <setXY>:
 802:	cf 93       	push	r28
 804:	c6 2f       	mov	r28, r22
 806:	80 55       	subi	r24, 0x50	; 80
 808:	ab df       	rcall	.-170    	; 0x760 <ssd1306_command>
 80a:	8c 2f       	mov	r24, r28
 80c:	88 0f       	add	r24, r24
 80e:	88 0f       	add	r24, r24
 810:	88 0f       	add	r24, r24
 812:	88 70       	andi	r24, 0x08	; 8
 814:	a5 df       	rcall	.-182    	; 0x760 <ssd1306_command>
 816:	8c 2f       	mov	r24, r28
 818:	90 e0       	ldi	r25, 0x00	; 0
 81a:	96 95       	lsr	r25
 81c:	87 95       	ror	r24
 81e:	8f 70       	andi	r24, 0x0F	; 15
 820:	80 5f       	subi	r24, 0xF0	; 240
 822:	9e df       	rcall	.-196    	; 0x760 <ssd1306_command>
 824:	cf 91       	pop	r28
 826:	08 95       	ret

00000828 <clear_display>:
 828:	cf 93       	push	r28
 82a:	df 93       	push	r29
 82c:	d0 e0       	ldi	r29, 0x00	; 0
 82e:	60 e0       	ldi	r22, 0x00	; 0
 830:	8d 2f       	mov	r24, r29
 832:	e7 df       	rcall	.-50     	; 0x802 <setXY>
 834:	c0 e0       	ldi	r28, 0x00	; 0
 836:	80 e0       	ldi	r24, 0x00	; 0
 838:	d8 df       	rcall	.-80     	; 0x7ea <SendChar>
 83a:	cf 5f       	subi	r28, 0xFF	; 255
 83c:	c0 38       	cpi	r28, 0x80	; 128
 83e:	d9 f7       	brne	.-10     	; 0x836 <clear_display+0xe>
 840:	df 5f       	subi	r29, 0xFF	; 255
 842:	d8 30       	cpi	r29, 0x08	; 8
 844:	a1 f7       	brne	.-24     	; 0x82e <clear_display+0x6>
 846:	df 91       	pop	r29
 848:	cf 91       	pop	r28
 84a:	08 95       	ret

0000084c <reset_display>:
 84c:	cb df       	rcall	.-106    	; 0x7e4 <displayOff>
 84e:	ec df       	rcall	.-40     	; 0x828 <clear_display>
 850:	c6 cf       	rjmp	.-116    	; 0x7de <displayOn>
 852:	08 95       	ret

00000854 <sendStr>:


//==========================================================//
/** Prints a string regardless the cursor position.*/
void sendStr(char *string)
{
 854:	0f 93       	push	r16
 856:	1f 93       	push	r17
 858:	cf 93       	push	r28
 85a:	df 93       	push	r29
 85c:	8c 01       	movw	r16, r24
	unsigned char i=0;
	while(*string)
 85e:	dc 01       	movw	r26, r24
 860:	8c 91       	ld	r24, X
 862:	81 11       	cpse	r24, r1
 864:	1a c0       	rjmp	.+52     	; 0x89a <sendStr+0x46>
 866:	1c c0       	rjmp	.+56     	; 0x8a0 <sendStr+0x4c>
	{
		for(i=0;i<8;i++)
		{
			SendChar(pgm_read_byte(myFont[*string-0x20]+i));   //look up ascii chars (no danish) defined in data.h
 868:	d8 01       	movw	r26, r16
 86a:	ec 91       	ld	r30, X
 86c:	f0 e0       	ldi	r31, 0x00	; 0
 86e:	ee 0f       	add	r30, r30
 870:	ff 1f       	adc	r31, r31
 872:	ee 0f       	add	r30, r30
 874:	ff 1f       	adc	r31, r31
 876:	ee 0f       	add	r30, r30
 878:	ff 1f       	adc	r31, r31
 87a:	ec 51       	subi	r30, 0x1C	; 28
 87c:	f0 40       	sbci	r31, 0x00	; 0
 87e:	ec 0f       	add	r30, r28
 880:	fd 1f       	adc	r31, r29
 882:	84 91       	lpm	r24, Z
 884:	b2 df       	rcall	.-156    	; 0x7ea <SendChar>
 886:	21 96       	adiw	r28, 0x01	; 1
void sendStr(char *string)
{
	unsigned char i=0;
	while(*string)
	{
		for(i=0;i<8;i++)
 888:	c8 30       	cpi	r28, 0x08	; 8
 88a:	d1 05       	cpc	r29, r1
 88c:	69 f7       	brne	.-38     	; 0x868 <sendStr+0x14>
		{
			SendChar(pgm_read_byte(myFont[*string-0x20]+i));   //look up ascii chars (no danish) defined in data.h
		}
		string++;
 88e:	0f 5f       	subi	r16, 0xFF	; 255
 890:	1f 4f       	sbci	r17, 0xFF	; 255
//==========================================================//
/** Prints a string regardless the cursor position.*/
void sendStr(char *string)
{
	unsigned char i=0;
	while(*string)
 892:	f8 01       	movw	r30, r16
 894:	80 81       	ld	r24, Z
 896:	88 23       	and	r24, r24
 898:	19 f0       	breq	.+6      	; 0x8a0 <sendStr+0x4c>


//==========================================================//
/** Prints a string regardless the cursor position.*/
void sendStr(char *string)
{
 89a:	c0 e0       	ldi	r28, 0x00	; 0
 89c:	d0 e0       	ldi	r29, 0x00	; 0
 89e:	e4 cf       	rjmp	.-56     	; 0x868 <sendStr+0x14>
		{
			SendChar(pgm_read_byte(myFont[*string-0x20]+i));   //look up ascii chars (no danish) defined in data.h
		}
		string++;
	}
}
 8a0:	df 91       	pop	r29
 8a2:	cf 91       	pop	r28
 8a4:	1f 91       	pop	r17
 8a6:	0f 91       	pop	r16
 8a8:	08 95       	ret

000008aa <sendStrXY>:

//==========================================================//
/** Prints a string in coordinates X Y, being multiples of 8.
* This means we have 16 COLS (0-15) and 8 ROWS (0-7).*/
void sendStrXY( char *string, int X, int Y)
{
 8aa:	ff 92       	push	r15
 8ac:	0f 93       	push	r16
 8ae:	1f 93       	push	r17
 8b0:	cf 93       	push	r28
 8b2:	df 93       	push	r29
 8b4:	ec 01       	movw	r28, r24
 8b6:	86 2f       	mov	r24, r22
	setXY(X,Y);
 8b8:	f6 2e       	mov	r15, r22
 8ba:	64 2f       	mov	r22, r20
 8bc:	a2 df       	rcall	.-188    	; 0x802 <setXY>
	unsigned char i=0;
	while(*string)
 8be:	98 81       	ld	r25, Y
 8c0:	99 23       	and	r25, r25
 8c2:	31 f1       	breq	.+76     	; 0x910 <sendStrXY+0x66>
	{    if (*string=='\n'){
		setXY(X+1,0);
 8c4:	f3 94       	inc	r15
void sendStrXY( char *string, int X, int Y)
{
	setXY(X,Y);
	unsigned char i=0;
	while(*string)
	{    if (*string=='\n'){
 8c6:	9a 30       	cpi	r25, 0x0A	; 10
 8c8:	39 f4       	brne	.+14     	; 0x8d8 <sendStrXY+0x2e>
		setXY(X+1,0);
 8ca:	60 e0       	ldi	r22, 0x00	; 0
 8cc:	8f 2d       	mov	r24, r15
 8ce:	99 df       	rcall	.-206    	; 0x802 <setXY>
		string++;
 8d0:	8e 01       	movw	r16, r28
 8d2:	0f 5f       	subi	r16, 0xFF	; 255
 8d4:	1f 4f       	sbci	r17, 0xFF	; 255
 8d6:	01 c0       	rjmp	.+2      	; 0x8da <sendStrXY+0x30>
 8d8:	8e 01       	movw	r16, r28
 8da:	c0 e0       	ldi	r28, 0x00	; 0
 8dc:	d0 e0       	ldi	r29, 0x00	; 0
		}
		for(i=0;i<8;i++)
		{
			SendChar(pgm_read_byte(myFont[*string-0x20]+i));
 8de:	d8 01       	movw	r26, r16
 8e0:	ec 91       	ld	r30, X
 8e2:	f0 e0       	ldi	r31, 0x00	; 0
 8e4:	ee 0f       	add	r30, r30
 8e6:	ff 1f       	adc	r31, r31
 8e8:	ee 0f       	add	r30, r30
 8ea:	ff 1f       	adc	r31, r31
 8ec:	ee 0f       	add	r30, r30
 8ee:	ff 1f       	adc	r31, r31
 8f0:	ec 51       	subi	r30, 0x1C	; 28
 8f2:	f0 40       	sbci	r31, 0x00	; 0
 8f4:	ec 0f       	add	r30, r28
 8f6:	fd 1f       	adc	r31, r29
 8f8:	84 91       	lpm	r24, Z
 8fa:	77 df       	rcall	.-274    	; 0x7ea <SendChar>
 8fc:	21 96       	adiw	r28, 0x01	; 1
	while(*string)
	{    if (*string=='\n'){
		setXY(X+1,0);
		string++;
		}
		for(i=0;i<8;i++)
 8fe:	c8 30       	cpi	r28, 0x08	; 8
 900:	d1 05       	cpc	r29, r1
 902:	69 f7       	brne	.-38     	; 0x8de <sendStrXY+0x34>
		{
			SendChar(pgm_read_byte(myFont[*string-0x20]+i));
		}
		string++;
 904:	e8 01       	movw	r28, r16
 906:	21 96       	adiw	r28, 0x01	; 1
* This means we have 16 COLS (0-15) and 8 ROWS (0-7).*/
void sendStrXY( char *string, int X, int Y)
{
	setXY(X,Y);
	unsigned char i=0;
	while(*string)
 908:	f8 01       	movw	r30, r16
 90a:	91 81       	ldd	r25, Z+1	; 0x01
 90c:	91 11       	cpse	r25, r1
 90e:	db cf       	rjmp	.-74     	; 0x8c6 <sendStrXY+0x1c>
		{
			SendChar(pgm_read_byte(myFont[*string-0x20]+i));
		}
		string++;
	}
}
 910:	df 91       	pop	r29
 912:	cf 91       	pop	r28
 914:	1f 91       	pop	r17
 916:	0f 91       	pop	r16
 918:	ff 90       	pop	r15
 91a:	08 95       	ret

0000091c <uart_Init>:
}


void putchUSART1(char tx){
	while(!(UCSR1A & (1<<UDRE1)));
	UDR1 = tx;
 91c:	22 e0       	ldi	r18, 0x02	; 2
 91e:	20 93 c8 00 	sts	0x00C8, r18	; 0x8000c8 <__TEXT_REGION_LENGTH__+0x7000c8>
 922:	e9 ec       	ldi	r30, 0xC9	; 201
 924:	f0 e0       	ldi	r31, 0x00	; 0
 926:	20 81       	ld	r18, Z
 928:	28 69       	ori	r18, 0x98	; 152
 92a:	20 83       	st	Z, r18
 92c:	ea ec       	ldi	r30, 0xCA	; 202
 92e:	f0 e0       	ldi	r31, 0x00	; 0
 930:	20 81       	ld	r18, Z
 932:	26 60       	ori	r18, 0x06	; 6
 934:	20 83       	st	Z, r18
 936:	90 93 cd 00 	sts	0x00CD, r25	; 0x8000cd <__TEXT_REGION_LENGTH__+0x7000cd>
 93a:	80 93 cc 00 	sts	0x00CC, r24	; 0x8000cc <__TEXT_REGION_LENGTH__+0x7000cc>
 93e:	08 95       	ret

00000940 <uart0_Init>:
 940:	22 e0       	ldi	r18, 0x02	; 2
 942:	20 93 c0 00 	sts	0x00C0, r18	; 0x8000c0 <__TEXT_REGION_LENGTH__+0x7000c0>
 946:	e1 ec       	ldi	r30, 0xC1	; 193
 948:	f0 e0       	ldi	r31, 0x00	; 0
 94a:	20 81       	ld	r18, Z
 94c:	28 61       	ori	r18, 0x18	; 24
 94e:	20 83       	st	Z, r18
 950:	e2 ec       	ldi	r30, 0xC2	; 194
 952:	f0 e0       	ldi	r31, 0x00	; 0
 954:	20 81       	ld	r18, Z
 956:	26 60       	ori	r18, 0x06	; 6
 958:	20 83       	st	Z, r18
 95a:	90 93 c5 00 	sts	0x00C5, r25	; 0x8000c5 <__TEXT_REGION_LENGTH__+0x7000c5>
 95e:	80 93 c4 00 	sts	0x00C4, r24	; 0x8000c4 <__TEXT_REGION_LENGTH__+0x7000c4>
 962:	08 95       	ret

00000964 <putchUSART0>:
}

void putchUSART0(char tx){
	while(!(UCSR0A & (1<<UDRE0)));
 964:	e0 ec       	ldi	r30, 0xC0	; 192
 966:	f0 e0       	ldi	r31, 0x00	; 0
 968:	90 81       	ld	r25, Z
 96a:	95 ff       	sbrs	r25, 5
 96c:	fd cf       	rjmp	.-6      	; 0x968 <putchUSART0+0x4>
	UDR0 = tx;
 96e:	80 93 c6 00 	sts	0x00C6, r24	; 0x8000c6 <__TEXT_REGION_LENGTH__+0x7000c6>
 972:	08 95       	ret

00000974 <__udivmodsi4>:
 974:	a1 e2       	ldi	r26, 0x21	; 33
 976:	1a 2e       	mov	r1, r26
 978:	aa 1b       	sub	r26, r26
 97a:	bb 1b       	sub	r27, r27
 97c:	fd 01       	movw	r30, r26
 97e:	0d c0       	rjmp	.+26     	; 0x99a <__udivmodsi4_ep>

00000980 <__udivmodsi4_loop>:
 980:	aa 1f       	adc	r26, r26
 982:	bb 1f       	adc	r27, r27
 984:	ee 1f       	adc	r30, r30
 986:	ff 1f       	adc	r31, r31
 988:	a2 17       	cp	r26, r18
 98a:	b3 07       	cpc	r27, r19
 98c:	e4 07       	cpc	r30, r20
 98e:	f5 07       	cpc	r31, r21
 990:	20 f0       	brcs	.+8      	; 0x99a <__udivmodsi4_ep>
 992:	a2 1b       	sub	r26, r18
 994:	b3 0b       	sbc	r27, r19
 996:	e4 0b       	sbc	r30, r20
 998:	f5 0b       	sbc	r31, r21

0000099a <__udivmodsi4_ep>:
 99a:	66 1f       	adc	r22, r22
 99c:	77 1f       	adc	r23, r23
 99e:	88 1f       	adc	r24, r24
 9a0:	99 1f       	adc	r25, r25
 9a2:	1a 94       	dec	r1
 9a4:	69 f7       	brne	.-38     	; 0x980 <__udivmodsi4_loop>
 9a6:	60 95       	com	r22
 9a8:	70 95       	com	r23
 9aa:	80 95       	com	r24
 9ac:	90 95       	com	r25
 9ae:	9b 01       	movw	r18, r22
 9b0:	ac 01       	movw	r20, r24
 9b2:	bd 01       	movw	r22, r26
 9b4:	cf 01       	movw	r24, r30
 9b6:	08 95       	ret

000009b8 <__itoa_ncheck>:
 9b8:	bb 27       	eor	r27, r27
 9ba:	4a 30       	cpi	r20, 0x0A	; 10
 9bc:	31 f4       	brne	.+12     	; 0x9ca <__itoa_ncheck+0x12>
 9be:	99 23       	and	r25, r25
 9c0:	22 f4       	brpl	.+8      	; 0x9ca <__itoa_ncheck+0x12>
 9c2:	bd e2       	ldi	r27, 0x2D	; 45
 9c4:	90 95       	com	r25
 9c6:	81 95       	neg	r24
 9c8:	9f 4f       	sbci	r25, 0xFF	; 255
 9ca:	01 c0       	rjmp	.+2      	; 0x9ce <__utoa_common>

000009cc <__utoa_ncheck>:
 9cc:	bb 27       	eor	r27, r27

000009ce <__utoa_common>:
 9ce:	fb 01       	movw	r30, r22
 9d0:	55 27       	eor	r21, r21
 9d2:	aa 27       	eor	r26, r26
 9d4:	88 0f       	add	r24, r24
 9d6:	99 1f       	adc	r25, r25
 9d8:	aa 1f       	adc	r26, r26
 9da:	a4 17       	cp	r26, r20
 9dc:	10 f0       	brcs	.+4      	; 0x9e2 <__utoa_common+0x14>
 9de:	a4 1b       	sub	r26, r20
 9e0:	83 95       	inc	r24
 9e2:	50 51       	subi	r21, 0x10	; 16
 9e4:	b9 f7       	brne	.-18     	; 0x9d4 <__utoa_common+0x6>
 9e6:	a0 5d       	subi	r26, 0xD0	; 208
 9e8:	aa 33       	cpi	r26, 0x3A	; 58
 9ea:	08 f0       	brcs	.+2      	; 0x9ee <__utoa_common+0x20>
 9ec:	a9 5d       	subi	r26, 0xD9	; 217
 9ee:	a1 93       	st	Z+, r26
 9f0:	00 97       	sbiw	r24, 0x00	; 0
 9f2:	79 f7       	brne	.-34     	; 0x9d2 <__utoa_common+0x4>
 9f4:	b1 11       	cpse	r27, r1
 9f6:	b1 93       	st	Z+, r27
 9f8:	11 92       	st	Z+, r1
 9fa:	cb 01       	movw	r24, r22
 9fc:	00 c0       	rjmp	.+0      	; 0x9fe <strrev>

000009fe <strrev>:
 9fe:	dc 01       	movw	r26, r24
 a00:	fc 01       	movw	r30, r24
 a02:	67 2f       	mov	r22, r23
 a04:	71 91       	ld	r23, Z+
 a06:	77 23       	and	r23, r23
 a08:	e1 f7       	brne	.-8      	; 0xa02 <strrev+0x4>
 a0a:	32 97       	sbiw	r30, 0x02	; 2
 a0c:	04 c0       	rjmp	.+8      	; 0xa16 <strrev+0x18>
 a0e:	7c 91       	ld	r23, X
 a10:	6d 93       	st	X+, r22
 a12:	70 83       	st	Z, r23
 a14:	62 91       	ld	r22, -Z
 a16:	ae 17       	cp	r26, r30
 a18:	bf 07       	cpc	r27, r31
 a1a:	c8 f3       	brcs	.-14     	; 0xa0e <strrev+0x10>
 a1c:	08 95       	ret

00000a1e <_exit>:
 a1e:	f8 94       	cli

00000a20 <__stop_program>:
 a20:	ff cf       	rjmp	.-2      	; 0xa20 <__stop_program>
